target datalayout = "e-m:e-p270:32:32-p271:32:32-p272:64:64-i64:64-i128:128-f80:128-n8:16:32:64-S128"
target triple = "x86_64-pc-linux-gnu"

%struct.Ssw_RarPars_t_ = type { i32, i32, i32, i32, i32, i32, i32, i32, i32, i32, i32, i32, i32, i32, i32, i32, i32, i32, i32, ptr, ptr }
%struct.Ssw_RarMan_t_ = type { ptr, i32, i32, ptr, ptr, ptr, ptr, ptr, ptr, ptr, ptr, ptr, ptr, i32, i32, ptr }
%struct.Aig_Man_t_ = type { ptr, ptr, ptr, ptr, ptr, ptr, ptr, %struct.Aig_Obj_t_, i32, i32, i32, i32, i32, i32, [7 x i32], i32, ptr, i32, ptr, i32, ptr, i32, i32, i32, ptr, i32, i32, i32, i32, i32, ptr, ptr, i32, ptr, ptr, i32, ptr, ptr, i32, i32, i32, ptr, ptr, ptr, ptr, ptr, ptr, ptr, ptr, ptr, ptr, ptr, ptr, ptr, ptr, i32, ptr, ptr, ptr, ptr, i32, i64, i64, i64, ptr, ptr }
%struct.Aig_Obj_t_ = type { %union.anon, ptr, ptr, i64, i32, i32, %union.anon.0 }
%union.anon = type { ptr }
%union.anon.0 = type { ptr }
%struct.Vec_Ptr_t_ = type { i32, i32, ptr }

; Function Attrs: inlinehint nounwind uwtable
define internal ptr @Vec_PtrEntry(ptr noundef %0, i32 noundef %1) #4 {
  %3 = alloca ptr, align 8
  %4 = alloca i32, align 4
  store ptr %0, ptr %3, align 8, !tbaa !55
  store i32 %1, ptr %4, align 4, !tbaa !24
  %5 = load ptr, ptr %3, align 8, !tbaa !55
  %6 = getelementptr inbounds nuw %struct.Vec_Ptr_t_, ptr %5, i32 0, i32 2
  %7 = load ptr, ptr %6, align 8, !tbaa !56
  %8 = load i32, ptr %4, align 4, !tbaa !24
  %9 = sext i32 %8 to i64
  %10 = getelementptr inbounds ptr, ptr %7, i64 %9
  %11 = load ptr, ptr %10, align 8, !tbaa !58
  ret ptr %11
}

; Function Attrs: inlinehint nounwind uwtable
define internal i32 @Saig_ManPoNum(ptr noundef %0) #4 {
  %2 = alloca ptr, align 8
  store ptr %0, ptr %2, align 8, !tbaa !53
  %3 = load ptr, ptr %2, align 8, !tbaa !53
  %4 = getelementptr inbounds nuw %struct.Aig_Man_t_, ptr %3, i32 0, i32 10
  %5 = load i32, ptr %4, align 8, !tbaa !115
  ret i32 %5
}

; Function Attrs: inlinehint nounwind uwtable
define internal ptr @Ssw_RarPatSim(ptr noundef %0, i32 noundef %1) #4 {
  %3 = alloca ptr, align 8
  %4 = alloca i32, align 4
  store ptr %0, ptr %3, align 8, !tbaa !27
  store i32 %1, ptr %4, align 4, !tbaa !24
  %5 = load ptr, ptr %3, align 8, !tbaa !27
  %6 = getelementptr inbounds nuw %struct.Ssw_RarMan_t_, ptr %5, i32 0, i32 7
  %7 = load ptr, ptr %6, align 8, !tbaa !95
  %8 = load ptr, ptr %3, align 8, !tbaa !27
  %9 = getelementptr inbounds nuw %struct.Ssw_RarMan_t_, ptr %8, i32 0, i32 2
  %10 = load i32, ptr %9, align 4, !tbaa !89
  %11 = load i32, ptr %4, align 4, !tbaa !24
  %12 = mul nsw i32 %10, %11
  %13 = sext i32 %12 to i64
  %14 = getelementptr inbounds i64, ptr %7, i64 %13
  ret ptr %14
}

; Function Attrs: nounwind uwtable
define void @transpose64(ptr noundef %0) #0 {
  %2 = alloca ptr, align 8
  %3 = alloca i32, align 4
  %4 = alloca i32, align 4
  %5 = alloca i64, align 8
  %6 = alloca i64, align 8
  store ptr %0, ptr %2, align 8, !tbaa !48
  call void @llvm.lifetime.start.p0(i64 4, ptr %3) #11
  call void @llvm.lifetime.start.p0(i64 4, ptr %4) #11
  call void @llvm.lifetime.start.p0(i64 8, ptr %5) #11
  call void @llvm.lifetime.start.p0(i64 8, ptr %6) #11
  store i64 4294967295, ptr %6, align 8, !tbaa !50
  store i32 32, ptr %3, align 4, !tbaa !24
  br label %7

7:                                                ; preds = %71, %1
  %8 = load i32, ptr %3, align 4, !tbaa !24
  %9 = icmp ne i32 %8, 0
  br i1 %9, label %10, label %80

10:                                               ; preds = %7
  store i32 0, ptr %4, align 4, !tbaa !24
  br label %11

11:                                               ; preds = %62, %10
  %12 = load i32, ptr %4, align 4, !tbaa !24
  %13 = icmp slt i32 %12, 64
  br i1 %13, label %14, label %70

14:                                               ; preds = %11
  %15 = load ptr, ptr %2, align 8, !tbaa !48
  %16 = load i32, ptr %4, align 4, !tbaa !24
  %17 = sext i32 %16 to i64
  %18 = getelementptr inbounds i64, ptr %15, i64 %17
  %19 = load i64, ptr %18, align 8, !tbaa !50
  %20 = load ptr, ptr %2, align 8, !tbaa !48
  %21 = load i32, ptr %4, align 4, !tbaa !24
  %22 = load i32, ptr %3, align 4, !tbaa !24
  %23 = add nsw i32 %21, %22
  %24 = sext i32 %23 to i64
  %25 = getelementptr inbounds i64, ptr %20, i64 %24
  %26 = load i64, ptr %25, align 8, !tbaa !50
  %27 = load i32, ptr %3, align 4, !tbaa !24
  %28 = zext i32 %27 to i64
  %29 = lshr i64 %26, %28
  %30 = xor i64 %19, %29
  %31 = load i64, ptr %6, align 8, !tbaa !50
  %32 = and i64 %30, %31
  store i64 %32, ptr %5, align 8, !tbaa !50
  %33 = load ptr, ptr %2, align 8, !tbaa !48
  %34 = load i32, ptr %4, align 4, !tbaa !24
  %35 = sext i32 %34 to i64
  %36 = getelementptr inbounds i64, ptr %33, i64 %35
  %37 = load i64, ptr %36, align 8, !tbaa !50
  %38 = load i64, ptr %5, align 8, !tbaa !50
  %39 = xor i64 %37, %38
  %40 = load ptr, ptr %2, align 8, !tbaa !48
  %41 = load i32, ptr %4, align 4, !tbaa !24
  %42 = sext i32 %41 to i64
  %43 = getelementptr inbounds i64, ptr %40, i64 %42
  store i64 %39, ptr %43, align 8, !tbaa !50
  %44 = load ptr, ptr %2, align 8, !tbaa !48
  %45 = load i32, ptr %4, align 4, !tbaa !24
  %46 = load i32, ptr %3, align 4, !tbaa !24
  %47 = add nsw i32 %45, %46
  %48 = sext i32 %47 to i64
  %49 = getelementptr inbounds i64, ptr %44, i64 %48
  %50 = load i64, ptr %49, align 8, !tbaa !50
  %51 = load i64, ptr %5, align 8, !tbaa !50
  %52 = load i32, ptr %3, align 4, !tbaa !24
  %53 = zext i32 %52 to i64
  %54 = shl i64 %51, %53
  %55 = xor i64 %50, %54
  %56 = load ptr, ptr %2, align 8, !tbaa !48
  %57 = load i32, ptr %4, align 4, !tbaa !24
  %58 = load i32, ptr %3, align 4, !tbaa !24
  %59 = add nsw i32 %57, %58
  %60 = sext i32 %59 to i64
  %61 = getelementptr inbounds i64, ptr %56, i64 %60
  store i64 %55, ptr %61, align 8, !tbaa !50
  br label %62

62:                                               ; preds = %14
  %63 = load i32, ptr %4, align 4, !tbaa !24
  %64 = load i32, ptr %3, align 4, !tbaa !24
  %65 = add nsw i32 %63, %64
  %66 = add nsw i32 %65, 1
  %67 = load i32, ptr %3, align 4, !tbaa !24
  %68 = xor i32 %67, -1
  %69 = and i32 %66, %68
  store i32 %69, ptr %4, align 4, !tbaa !24
  br label %11, !llvm.loop !80

70:                                               ; preds = %11
  br label %71

71:                                               ; preds = %70
  %72 = load i32, ptr %3, align 4, !tbaa !24
  %73 = ashr i32 %72, 1
  store i32 %73, ptr %3, align 4, !tbaa !24
  %74 = load i64, ptr %6, align 8, !tbaa !50
  %75 = load i64, ptr %6, align 8, !tbaa !50
  %76 = load i32, ptr %3, align 4, !tbaa !24
  %77 = zext i32 %76 to i64
  %78 = shl i64 %75, %77
  %79 = xor i64 %74, %78
  store i64 %79, ptr %6, align 8, !tbaa !50
  br label %7, !llvm.loop !81

80:                                               ; preds = %7
  call void @llvm.lifetime.end.p0(i64 8, ptr %6) #11
  call void @llvm.lifetime.end.p0(i64 8, ptr %5) #11
  call void @llvm.lifetime.end.p0(i64 4, ptr %4) #11
  call void @llvm.lifetime.end.p0(i64 4, ptr %3) #11
  ret void
}

; Function Attrs: inlinehint nounwind uwtable
define internal ptr @Ssw_RarObjSim(ptr noundef %0, i32 noundef %1) #4 {
  %3 = alloca ptr, align 8
  %4 = alloca i32, align 4
  store ptr %0, ptr %3, align 8, !tbaa !27
  store i32 %1, ptr %4, align 4, !tbaa !24
  %5 = load ptr, ptr %3, align 8, !tbaa !27
  %6 = getelementptr inbounds nuw %struct.Ssw_RarMan_t_, ptr %5, i32 0, i32 6
  %7 = load ptr, ptr %6, align 8, !tbaa !59
  %8 = load ptr, ptr %3, align 8, !tbaa !27
  %9 = getelementptr inbounds nuw %struct.Ssw_RarMan_t_, ptr %8, i32 0, i32 0
  %10 = load ptr, ptr %9, align 8, !tbaa !49
  %11 = getelementptr inbounds nuw %struct.Ssw_RarPars_t_, ptr %10, i32 0, i32 1
  %12 = load i32, ptr %11, align 4, !tbaa !12
  %13 = load i32, ptr %4, align 4, !tbaa !24
  %14 = mul nsw i32 %12, %13
  %15 = sext i32 %14 to i64
  %16 = getelementptr inbounds i64, ptr %7, i64 %15
  ret ptr %16
}

; Function Attrs: inlinehint nounwind uwtable
define internal i32 @Aig_ObjId(ptr noundef %0) #4 {
  %2 = alloca ptr, align 8
  store ptr %0, ptr %2, align 8, !tbaa !47
  %3 = load ptr, ptr %2, align 8, !tbaa !47
  %4 = getelementptr inbounds nuw %struct.Aig_Obj_t_, ptr %3, i32 0, i32 5
  %5 = load i32, ptr %4, align 4, !tbaa !60
  ret i32 %5
}

; Function Attrs: inlinehint nounwind uwtable
define internal ptr @Saig_ManLi(ptr noundef %0, i32 noundef %1) #4 {
  %3 = alloca ptr, align 8
  %4 = alloca i32, align 4
  store ptr %0, ptr %3, align 8, !tbaa !53
  store i32 %1, ptr %4, align 4, !tbaa !24
  %5 = load ptr, ptr %3, align 8, !tbaa !53
  %6 = getelementptr inbounds nuw %struct.Aig_Man_t_, ptr %5, i32 0, i32 3
  %7 = load ptr, ptr %6, align 8, !tbaa !94
  %8 = load ptr, ptr %3, align 8, !tbaa !53
  %9 = call i32 @Saig_ManPoNum(ptr noundef %8)
  %10 = load i32, ptr %4, align 4, !tbaa !24
  %11 = add nsw i32 %9, %10
  %12 = call ptr @Vec_PtrEntry(ptr noundef %7, i32 noundef %11)
  ret ptr %12
}

; Function Attrs: inlinehint nounwind uwtable
define internal i32 @Aig_ManRegNum(ptr noundef %0) #4 {
  %2 = alloca ptr, align 8
  store ptr %0, ptr %2, align 8, !tbaa !53
  %3 = load ptr, ptr %2, align 8, !tbaa !53
  %4 = getelementptr inbounds nuw %struct.Aig_Man_t_, ptr %3, i32 0, i32 8
  %5 = load i32, ptr %4, align 8, !tbaa !73
  ret i32 %5
}

; Function Attrs: nounwind uwtable
define void @Ssw_RarTranspose(ptr noundef %0) #0 {
  %2 = alloca ptr, align 8
  %3 = alloca ptr, align 8
  %4 = alloca [64 x i64], align 16
  %5 = alloca i32, align 4
  %6 = alloca i32, align 4
  %7 = alloca i32, align 4
  store ptr %0, ptr %2, align 8, !tbaa !27
  call void @llvm.lifetime.start.p0(i64 8, ptr %3) #11
  call void @llvm.lifetime.start.p0(i64 512, ptr %4) #11
  call void @llvm.lifetime.start.p0(i64 4, ptr %5) #11
  call void @llvm.lifetime.start.p0(i64 4, ptr %6) #11
  call void @llvm.lifetime.start.p0(i64 4, ptr %7) #11
  store i32 0, ptr %5, align 4, !tbaa !24
  br label %8

8:                                                ; preds = %95, %1
  %9 = load i32, ptr %5, align 4, !tbaa !24
  %10 = load ptr, ptr %2, align 8, !tbaa !27
  %11 = getelementptr inbounds nuw %struct.Ssw_RarMan_t_, ptr %10, i32 0, i32 0
  %12 = load ptr, ptr %11, align 8, !tbaa !49
  %13 = getelementptr inbounds nuw %struct.Ssw_RarPars_t_, ptr %12, i32 0, i32 1
  %14 = load i32, ptr %13, align 4, !tbaa !12
  %15 = icmp slt i32 %9, %14
  br i1 %15, label %16, label %98

16:                                               ; preds = %8
  store i32 0, ptr %6, align 4, !tbaa !24
  br label %17

17:                                               ; preds = %91, %16
  %18 = load i32, ptr %6, align 4, !tbaa !24
  %19 = load ptr, ptr %2, align 8, !tbaa !27
  %20 = getelementptr inbounds nuw %struct.Ssw_RarMan_t_, ptr %19, i32 0, i32 2
  %21 = load i32, ptr %20, align 4, !tbaa !89
  %22 = icmp slt i32 %18, %21
  br i1 %22, label %23, label %94

23:                                               ; preds = %17
  store i32 0, ptr %7, align 4, !tbaa !24
  br label %24

24:                                               ; preds = %64, %23
  %25 = load i32, ptr %7, align 4, !tbaa !24
  %26 = icmp slt i32 %25, 64
  br i1 %26, label %27, label %67

27:                                               ; preds = %24
  %28 = load i32, ptr %6, align 4, !tbaa !24
  %29 = mul nsw i32 %28, 64
  %30 = add nsw i32 %29, 63
  %31 = load i32, ptr %7, align 4, !tbaa !24
  %32 = sub nsw i32 %30, %31
  %33 = load ptr, ptr %2, align 8, !tbaa !27
  %34 = getelementptr inbounds nuw %struct.Ssw_RarMan_t_, ptr %33, i32 0, i32 3
  %35 = load ptr, ptr %34, align 8, !tbaa !29
  %36 = call i32 @Aig_ManRegNum(ptr noundef %35)
  %37 = icmp slt i32 %32, %36
  br i1 %37, label %38, label %59

38:                                               ; preds = %27
  %39 = load ptr, ptr %2, align 8, !tbaa !27
  %40 = getelementptr inbounds nuw %struct.Ssw_RarMan_t_, ptr %39, i32 0, i32 3
  %41 = load ptr, ptr %40, align 8, !tbaa !29
  %42 = load i32, ptr %6, align 4, !tbaa !24
  %43 = mul nsw i32 %42, 64
  %44 = add nsw i32 %43, 63
  %45 = load i32, ptr %7, align 4, !tbaa !24
  %46 = sub nsw i32 %44, %45
  %47 = call ptr @Saig_ManLi(ptr noundef %41, i32 noundef %46)
  store ptr %47, ptr %3, align 8, !tbaa !47
  %48 = load ptr, ptr %2, align 8, !tbaa !27
  %49 = load ptr, ptr %3, align 8, !tbaa !47
  %50 = call i32 @Aig_ObjId(ptr noundef %49)
  %51 = call ptr @Ssw_RarObjSim(ptr noundef %48, i32 noundef %50)
  %52 = load i32, ptr %5, align 4, !tbaa !24
  %53 = sext i32 %52 to i64
  %54 = getelementptr inbounds i64, ptr %51, i64 %53
  %55 = load i64, ptr %54, align 8, !tbaa !50
  %56 = load i32, ptr %7, align 4, !tbaa !24
  %57 = sext i32 %56 to i64
  %58 = getelementptr inbounds [64 x i64], ptr %4, i64 0, i64 %57
  store i64 %55, ptr %58, align 8, !tbaa !50
  br label %63

59:                                               ; preds = %27
  %60 = load i32, ptr %7, align 4, !tbaa !24
  %61 = sext i32 %60 to i64
  %62 = getelementptr inbounds [64 x i64], ptr %4, i64 0, i64 %61
  store i64 0, ptr %62, align 8, !tbaa !50
  br label %63

63:                                               ; preds = %59, %38
  br label %64

64:                                               ; preds = %63
  %65 = load i32, ptr %7, align 4, !tbaa !24
  %66 = add nsw i32 %65, 1
  store i32 %66, ptr %7, align 4, !tbaa !24
  br label %24, !llvm.loop !90

67:                                               ; preds = %24
  %68 = getelementptr inbounds [64 x i64], ptr %4, i64 0, i64 0
  call void @transpose64(ptr noundef %68)
  store i32 0, ptr %7, align 4, !tbaa !24
  br label %69

69:                                               ; preds = %87, %67
  %70 = load i32, ptr %7, align 4, !tbaa !24
  %71 = icmp slt i32 %70, 64
  br i1 %71, label %72, label %90

72:                                               ; preds = %69
  %73 = load i32, ptr %7, align 4, !tbaa !24
  %74 = sext i32 %73 to i64
  %75 = getelementptr inbounds [64 x i64], ptr %4, i64 0, i64 %74
  %76 = load i64, ptr %75, align 8, !tbaa !50
  %77 = load ptr, ptr %2, align 8, !tbaa !27
  %78 = load i32, ptr %5, align 4, !tbaa !24
  %79 = mul nsw i32 %78, 64
  %80 = add nsw i32 %79, 63
  %81 = load i32, ptr %7, align 4, !tbaa !24
  %82 = sub nsw i32 %80, %81
  %83 = call ptr @Ssw_RarPatSim(ptr noundef %77, i32 noundef %82)
  %84 = load i32, ptr %6, align 4, !tbaa !24
  %85 = sext i32 %84 to i64
  %86 = getelementptr inbounds i64, ptr %83, i64 %85
  store i64 %76, ptr %86, align 8, !tbaa !50
  br label %87

87:                                               ; preds = %72
  %88 = load i32, ptr %7, align 4, !tbaa !24
  %89 = add nsw i32 %88, 1
  store i32 %89, ptr %7, align 4, !tbaa !24
  br label %69, !llvm.loop !91

90:                                               ; preds = %69
  br label %91

91:                                               ; preds = %90
  %92 = load i32, ptr %6, align 4, !tbaa !24
  %93 = add nsw i32 %92, 1
  store i32 %93, ptr %6, align 4, !tbaa !24
  br label %17, !llvm.loop !92

94:                                               ; preds = %17
  br label %95

95:                                               ; preds = %94
  %96 = load i32, ptr %5, align 4, !tbaa !24
  %97 = add nsw i32 %96, 1
  store i32 %97, ptr %5, align 4, !tbaa !24
  br label %8, !llvm.loop !93

98:                                               ; preds = %8
  call void @llvm.lifetime.end.p0(i64 4, ptr %7) #11
  call void @llvm.lifetime.end.p0(i64 4, ptr %6) #11
  call void @llvm.lifetime.end.p0(i64 4, ptr %5) #11
  call void @llvm.lifetime.end.p0(i64 512, ptr %4) #11
  call void @llvm.lifetime.end.p0(i64 8, ptr %3) #11
  ret void
}