; Function Attrs: nofree norecurse nosync nounwind memory(readwrite, inaccessiblemem: none) uwtable
define void @Ssw_RarTranspose(ptr noundef readonly captures(none) %0) local_unnamed_addr #7 {
  %2 = alloca [64 x i64], align 16
  call void @llvm.lifetime.start.p0(i64 512, ptr nonnull %2) #20
  %3 = load ptr, ptr %0, align 8, !tbaa !33
  %4 = getelementptr inbounds nuw i8, ptr %3, i64 4
  %5 = load i32, ptr %4, align 4, !tbaa !10
  %6 = icmp sgt i32 %5, 0
  br i1 %6, label %.preheader35.lr.ph, label %._crit_edge40

.preheader35.lr.ph:                               ; preds = %1
  %7 = getelementptr inbounds nuw i8, ptr %0, i64 12
  %8 = load i32, ptr %7, align 4, !tbaa !74
  %9 = icmp sgt i32 %8, 0
  %10 = getelementptr i8, ptr %0, i64 40
  br i1 %9, label %.preheader35.lr.ph.split.us, label %._crit_edge40

.preheader35.lr.ph.split.us:                      ; preds = %.preheader35.lr.ph
  %11 = getelementptr i8, ptr %0, i64 48
  %12 = getelementptr inbounds nuw i8, ptr %0, i64 16
  %13 = load ptr, ptr %12, align 8, !tbaa !14
  %14 = getelementptr i8, ptr %13, i64 104
  %.val30.us = load i32, ptr %14, align 8, !tbaa !50
  %15 = getelementptr i8, ptr %13, i64 24
  %16 = getelementptr i8, ptr %13, i64 112
  %.val34.us = load ptr, ptr %11, align 8, !tbaa !75
  %17 = sext i32 %.val30.us to i64
  %18 = zext nneg i32 %8 to i64
  %wide.trip.count54 = zext nneg i32 %5 to i64
  %wide.trip.count = zext nneg i32 %8 to i64
  br label %.preheader35.us

.preheader35.us:                                  ; preds = %._crit_edge.us, %.preheader35.lr.ph.split.us
  %indvars.iv51 = phi i64 [ %indvars.iv.next52, %._crit_edge.us ], [ 0, %.preheader35.lr.ph.split.us ]
  %19 = shl nsw i64 %indvars.iv51, 6
  %20 = or disjoint i64 %19, 63
  br label %.preheader.us

.preheader.i.us:                                  ; preds = %65, %39
  %.032.i.us = phi i64 [ %43, %39 ], [ 4294967295, %65 ]
  %.02831.i.us = phi i32 [ %40, %39 ], [ 32, %65 ]
  %21 = zext nneg i32 %.02831.i.us to i64
  %invariant.op.i.us = add nuw nsw i32 %.02831.i.us, 1
  %22 = xor i32 %.02831.i.us, -1
  br label %23

23:                                               ; preds = %23, %.preheader.i.us
  %.02930.i.us = phi i32 [ 0, %.preheader.i.us ], [ %37, %23 ]
  %24 = sext i32 %.02930.i.us to i64
  %25 = getelementptr inbounds i64, ptr %2, i64 %24
  %26 = load i64, ptr %25, align 8, !tbaa !40
  %27 = add nsw i32 %.02930.i.us, %.02831.i.us
  %28 = sext i32 %27 to i64
  %29 = getelementptr inbounds i64, ptr %2, i64 %28
  %30 = load i64, ptr %29, align 8, !tbaa !40
  %31 = lshr i64 %30, %21
  %32 = xor i64 %31, %26
  %33 = and i64 %32, %.032.i.us
  %34 = xor i64 %33, %26
  store i64 %34, ptr %25, align 8, !tbaa !40
  %35 = shl i64 %33, %21
  %36 = xor i64 %35, %30
  store i64 %36, ptr %29, align 8, !tbaa !40
  %.reass.i.us = add i32 %invariant.op.i.us, %.02930.i.us
  %37 = and i32 %.reass.i.us, %22
  %38 = icmp slt i32 %37, 64
  br i1 %38, label %23, label %39, !llvm.loop !63

39:                                               ; preds = %23
  %40 = lshr i32 %.02831.i.us, 1
  %41 = zext nneg i32 %40 to i64
  %42 = shl i64 %.032.i.us, %41
  %43 = xor i64 %42, %.032.i.us
  %.not.i.us = icmp samesign ult i32 %.02831.i.us, 2
  br i1 %.not.i.us, label %transpose64.exit.preheader.us, label %.preheader.i.us, !llvm.loop !64

44:                                               ; preds = %transpose64.exit.us
  %indvars.iv.next48 = add nuw nsw i64 %indvars.iv47, 1
  %exitcond50.not = icmp eq i64 %indvars.iv.next48, %wide.trip.count
  br i1 %exitcond50.not, label %._crit_edge.us, label %.preheader.us, !llvm.loop !76

transpose64.exit.us:                              ; preds = %transpose64.exit.preheader.us, %transpose64.exit.us
  %indvars.iv43 = phi i64 [ 0, %transpose64.exit.preheader.us ], [ %indvars.iv.next44, %transpose64.exit.us ]
  %45 = getelementptr inbounds nuw [64 x i64], ptr %2, i64 0, i64 %indvars.iv43
  %46 = load i64, ptr %45, align 8, !tbaa !40
  %47 = sub nuw nsw i64 %20, %indvars.iv43
  %48 = mul nuw nsw i64 %47, %18
  %gep.us = getelementptr i64, ptr %invariant.gep.us, i64 %48
  store i64 %46, ptr %gep.us, align 8, !tbaa !40
  %indvars.iv.next44 = add nuw nsw i64 %indvars.iv43, 1
  %exitcond46.not = icmp eq i64 %indvars.iv.next44, 64
  br i1 %exitcond46.not, label %44, label %transpose64.exit.us, !llvm.loop !77

49:                                               ; preds = %.preheader.us, %65
  %indvars.iv = phi i64 [ 0, %.preheader.us ], [ %indvars.iv.next, %65 ]
  %50 = sub nuw nsw i64 %68, %indvars.iv
  %51 = icmp slt i64 %50, %17
  br i1 %51, label %52, label %65

52:                                               ; preds = %49
  %.val31.us = load ptr, ptr %15, align 8, !tbaa !78
  %.val32.us = load i32, ptr %16, align 8, !tbaa !79
  %53 = getelementptr i8, ptr %.val31.us, i64 8
  %.val31.val.us = load ptr, ptr %53, align 8, !tbaa !36
  %54 = trunc nuw nsw i64 %50 to i32
  %55 = add nsw i32 %.val32.us, %54
  %56 = sext i32 %55 to i64
  %57 = getelementptr inbounds ptr, ptr %.val31.val.us, i64 %56
  %58 = load ptr, ptr %57, align 8, !tbaa !38
  %59 = getelementptr i8, ptr %58, i64 36
  %.val.us = load i32, ptr %59, align 4, !tbaa !39
  %.val29.us = load ptr, ptr %10, align 8, !tbaa !34
  %60 = mul nsw i32 %.val.us, %5
  %61 = sext i32 %60 to i64
  %62 = getelementptr inbounds i64, ptr %.val29.us, i64 %61
  %63 = getelementptr inbounds nuw i64, ptr %62, i64 %indvars.iv51
  %64 = load i64, ptr %63, align 8, !tbaa !40
  br label %65

65:                                               ; preds = %49, %52
  %.sink = phi i64 [ %64, %52 ], [ 0, %49 ]
  %66 = getelementptr inbounds nuw [64 x i64], ptr %2, i64 0, i64 %indvars.iv
  store i64 %.sink, ptr %66, align 8, !tbaa !40
  %indvars.iv.next = add nuw nsw i64 %indvars.iv, 1
  %exitcond.not = icmp eq i64 %indvars.iv.next, 64
  br i1 %exitcond.not, label %.preheader.i.us, label %49, !llvm.loop !80

transpose64.exit.preheader.us:                    ; preds = %39
  %invariant.gep.us = getelementptr i64, ptr %.val34.us, i64 %indvars.iv47
  br label %transpose64.exit.us

.preheader.us:                                    ; preds = %.preheader35.us, %44
  %indvars.iv47 = phi i64 [ 0, %.preheader35.us ], [ %indvars.iv.next48, %44 ]
  %67 = shl nsw i64 %indvars.iv47, 6
  %68 = or disjoint i64 %67, 63
  br label %49

._crit_edge.us:                                   ; preds = %44
  %indvars.iv.next52 = add nuw nsw i64 %indvars.iv51, 1
  %exitcond55.not = icmp eq i64 %indvars.iv.next52, %wide.trip.count54
  br i1 %exitcond55.not, label %._crit_edge40, label %.preheader35.us, !llvm.loop !81

._crit_edge40:                                    ; preds = %._crit_edge.us, %.preheader35.lr.ph, %1
  call void @llvm.lifetime.end.p0(i64 512, ptr nonnull %2) #20
  ret void
}